target datalayout = "e-m:e-p270:32:32-p271:32:32-p272:64:64-i64:64-i128:128-f80:128-n8:16:32:64-S128"
target triple = "x86_64-unknown-linux-gnu"

%struct.ecc_point = type { [1 x %struct.sp_int], [1 x %struct.sp_int], [1 x %struct.sp_int] }
%struct.sp_int = type { i32, i32, [129 x i64] }

; Function Attrs: nounwind uwtable
define i32 @wc_ecc_point_is_at_infinity(ptr noundef %p) #0 {
entry:
  %retval = alloca i32, align 4
  %p.addr = alloca ptr, align 8
  store ptr %p, ptr %p.addr, align 8
  %0 = load ptr, ptr %p.addr, align 8
  %cmp = icmp eq ptr %0, null
  br i1 %cmp, label %if.then, label %if.end

if.then:                                          ; preds = %entry
  store i32 -173, ptr %retval, align 4
  br label %return

if.end:                                           ; preds = %entry
  %1 = load ptr, ptr %p.addr, align 8
  %x = getelementptr inbounds %struct.ecc_point, ptr %1, i32 0, i32 0
  %arraydecay = getelementptr inbounds [1 x %struct.sp_int], ptr %x, i64 0, i64 0
  %used = getelementptr inbounds %struct.sp_int, ptr %arraydecay, i32 0, i32 0
  %2 = load i32, ptr %used, align 8
  %cmp1 = icmp eq i32 %2, 0
  br i1 %cmp1, label %land.lhs.true, label %if.end6

land.lhs.true:                                    ; preds = %if.end
  %3 = load ptr, ptr %p.addr, align 8
  %y = getelementptr inbounds %struct.ecc_point, ptr %3, i32 0, i32 1
  %arraydecay2 = getelementptr inbounds [1 x %struct.sp_int], ptr %y, i64 0, i64 0
  %used3 = getelementptr inbounds %struct.sp_int, ptr %arraydecay2, i32 0, i32 0
  %4 = load i32, ptr %used3, align 8
  %cmp4 = icmp eq i32 %4, 0
  br i1 %cmp4, label %if.then5, label %if.end6

if.then5:                                         ; preds = %land.lhs.true
  store i32 1, ptr %retval, align 4
  br label %return

if.end6:                                          ; preds = %land.lhs.true, %if.end
  store i32 0, ptr %retval, align 4
  br label %return

return:                                           ; preds = %if.end6, %if.then5, %if.then
  %5 = load i32, ptr %retval, align 4
  ret i32 %5
}