; Function Attrs: mustprogress nofree norecurse nosync nounwind willreturn memory(argmem: read) uwtable
define range(i32 -173, 2) i32 @wc_ecc_point_is_at_infinity(ptr noundef readonly %p) local_unnamed_addr #10 {
entry:
  %cmp = icmp eq ptr %p, null
  br i1 %cmp, label %return, label %if.end

if.end:                                           ; preds = %entry
  %0 = load i32, ptr %p, align 8
  %cmp1 = icmp eq i32 %0, 0
  br i1 %cmp1, label %land.lhs.true, label %if.end6

land.lhs.true:                                    ; preds = %if.end
  %y = getelementptr inbounds nuw i8, ptr %p, i64 1040
  %1 = load i32, ptr %y, align 8
  %cmp4 = icmp eq i32 %1, 0
  br i1 %cmp4, label %return, label %if.end6

if.end6:                                          ; preds = %land.lhs.true, %if.end
  br label %return

return:                                           ; preds = %land.lhs.true, %entry, %if.end6
  %retval.0 = phi i32 [ 0, %if.end6 ], [ -173, %entry ], [ 1, %land.lhs.true ]
  ret i32 %retval.0
}